target datalayout = "e-m:e-p270:32:32-p271:32:32-p272:64:64-i64:64-i128:128-f80:128-n8:16:32:64-S128"
target triple = "x86_64-pc-linux-gnu"

%class.ModuleEventCallbackClosure = type { %class.ModuleClosure, ptr }
%class.ModuleClosure = type { ptr }
%class.ModuleDependencyClosure = type { %class.ModuleEventCallbackClosure, ptr }

@_ZTV23ModuleDependencyClosure = hidden unnamed_addr constant { [3 x ptr] } { [3 x ptr] [ptr null, ptr null, ptr @_ZN23ModuleDependencyClosure9do_moduleEP11ModuleEntry] }, align 8
@_ZTV26ModuleEventCallbackClosure = linkonce_odr hidden unnamed_addr constant { [3 x ptr] } { [3 x ptr] [ptr null, ptr null, ptr @__cxa_pure_virtual] }, comdat, align 8
@_ZTV13ModuleClosure = linkonce_odr hidden unnamed_addr constant { [3 x ptr] } { [3 x ptr] [ptr null, ptr null, ptr @__cxa_pure_virtual] }, comdat, align 8

; Function Attrs: mustprogress nounwind uwtable
define linkonce_odr hidden void @_ZN13ModuleClosureC2Ev(ptr noundef nonnull align 8 dereferenceable(8) %0) unnamed_addr #1 comdat align 2 {
  %2 = alloca ptr, align 8
  store ptr %0, ptr %2, align 8
  %3 = load ptr, ptr %2, align 8
  store ptr getelementptr inbounds inrange(-16, 8) ({ [3 x ptr] }, ptr @_ZTV13ModuleClosure, i32 0, i32 0, i32 2), ptr %3, align 8
  ret void
}

; Function Attrs: mustprogress nounwind uwtable
define linkonce_odr hidden void @_ZN26ModuleEventCallbackClosureC2EPFvPKvPK11ModuleEntryE(ptr noundef nonnull align 8 dereferenceable(16) %0, ptr noundef %1) unnamed_addr #1 comdat align 2 {
  %3 = alloca ptr, align 8
  %4 = alloca ptr, align 8
  store ptr %0, ptr %3, align 8
  store ptr %1, ptr %4, align 8
  %5 = load ptr, ptr %3, align 8
  call void @_ZN13ModuleClosureC2Ev(ptr noundef nonnull align 8 dereferenceable(8) %5) #5
  store ptr getelementptr inbounds inrange(-16, 8) ({ [3 x ptr] }, ptr @_ZTV26ModuleEventCallbackClosure, i32 0, i32 0, i32 2), ptr %5, align 8
  %6 = getelementptr inbounds %class.ModuleEventCallbackClosure, ptr %5, i32 0, i32 1
  %7 = load ptr, ptr %4, align 8
  store ptr %7, ptr %6, align 8
  ret void
}

; Function Attrs: mustprogress nounwind uwtable
define linkonce_odr hidden void @_ZN23ModuleDependencyClosureC2EPK11ModuleEntryPFvPKvS2_E(ptr noundef nonnull align 8 dereferenceable(24) %0, ptr noundef %1, ptr noundef %2) unnamed_addr #1 comdat align 2 {
  %4 = alloca ptr, align 8
  %5 = alloca ptr, align 8
  %6 = alloca ptr, align 8
  store ptr %0, ptr %4, align 8
  store ptr %1, ptr %5, align 8
  store ptr %2, ptr %6, align 8
  %7 = load ptr, ptr %4, align 8
  %8 = load ptr, ptr %6, align 8
  call void @_ZN26ModuleEventCallbackClosureC2EPFvPKvPK11ModuleEntryE(ptr noundef nonnull align 8 dereferenceable(16) %7, ptr noundef %8)
  store ptr getelementptr inbounds inrange(-16, 8) ({ [3 x ptr] }, ptr @_ZTV23ModuleDependencyClosure, i32 0, i32 0, i32 2), ptr %7, align 8
  %9 = getelementptr inbounds %class.ModuleDependencyClosure, ptr %7, i32 0, i32 1
  %10 = load ptr, ptr %5, align 8
  store ptr %10, ptr %9, align 8
  ret void
}

; Function Attrs: mustprogress nounwind uwtable
define internal void @_ZL32module_dependency_event_callbackP11ModuleEntry(ptr noundef %0) #1 {
  %2 = alloca ptr, align 8
  %3 = alloca %class.ModuleDependencyClosure, align 8
  store ptr %0, ptr %2, align 8
  %4 = load ptr, ptr %2, align 8
  %5 = call noundef zeroext i1 @_ZNK11ModuleEntry14has_reads_listEv(ptr noundef nonnull align 8 dereferenceable(80) %4)
  br i1 %5, label %6, label %9

6:                                                ; preds = %1
  %7 = load ptr, ptr %2, align 8
  call void @_ZN23ModuleDependencyClosureC2EPK11ModuleEntryPFvPKvS2_E(ptr noundef nonnull align 8 dereferenceable(24) %3, ptr noundef %7, ptr noundef @_ZL29write_module_dependency_eventPKvPK11ModuleEntry)
  %8 = load ptr, ptr %2, align 8
  call void @_ZN11ModuleEntry15module_reads_doEP13ModuleClosure(ptr noundef nonnull align 8 dereferenceable(80) %8, ptr noundef %3)
  br label %9

9:                                                ; preds = %6, %1
  ret void
}