; Function Attrs: mustprogress nounwind uwtable
define internal void @_ZL32module_dependency_event_callbackP11ModuleEntry(ptr noundef nonnull %0) #0 {
  %2 = alloca %class.ModuleDependencyClosure, align 8
  %3 = tail call noundef zeroext i1 @_ZNK11ModuleEntry14has_reads_listEv(ptr noundef nonnull align 8 dereferenceable(80) %0) #7
  br i1 %3, label %4, label %7

4:                                                ; preds = %1
  %5 = getelementptr inbounds i8, ptr %2, i64 8
  store ptr @_ZL29write_module_dependency_eventPKvPK11ModuleEntry, ptr %5, align 8
  store ptr getelementptr inbounds inrange(-16, 8) (i8, ptr @_ZTV23ModuleDependencyClosure, i64 16), ptr %2, align 8
  %6 = getelementptr inbounds i8, ptr %2, i64 16
  store ptr %0, ptr %6, align 8
  call void @_ZN11ModuleEntry15module_reads_doEP13ModuleClosure(ptr noundef nonnull align 8 dereferenceable(80) %0, ptr noundef nonnull %2) #7
  br label %7

7:                                                ; preds = %4, %1
  ret void
}